target datalayout = "e-m:e-p270:32:32-p271:32:32-p272:64:64-i64:64-i128:128-f80:128-n8:16:32:64-S128"
target triple = "x86_64-pc-linux-gnu"

%struct.sct_st = type { i32, ptr, i64, ptr, i64, i64, ptr, i64, i8, i8, ptr, i64, i32, i32, i32 }

; Function Attrs: nounwind uwtable
define i32 @SCT_get_signature_nid(ptr noundef %0) #0 {
  %2 = alloca i32, align 4
  %3 = alloca ptr, align 8
  store ptr %0, ptr %3, align 8, !tbaa !3
  %4 = load ptr, ptr %3, align 8, !tbaa !3
  %5 = getelementptr inbounds nuw %struct.sct_st, ptr %4, i32 0, i32 0
  %6 = load i32, ptr %5, align 8, !tbaa !13
  %7 = icmp eq i32 %6, 0
  br i1 %7, label %8, label %23

8:                                                ; preds = %1
  %9 = load ptr, ptr %3, align 8, !tbaa !3
  %10 = getelementptr inbounds nuw %struct.sct_st, ptr %9, i32 0, i32 8
  %11 = load i8, ptr %10, align 8, !tbaa !27
  %12 = zext i8 %11 to i32
  %13 = icmp eq i32 %12, 4
  br i1 %13, label %14, label %22

14:                                               ; preds = %8
  %15 = load ptr, ptr %3, align 8, !tbaa !3
  %16 = getelementptr inbounds nuw %struct.sct_st, ptr %15, i32 0, i32 9
  %17 = load i8, ptr %16, align 1, !tbaa !28
  %18 = zext i8 %17 to i32
  switch i32 %18, label %21 [
    i32 3, label %19
    i32 1, label %20
  ]

19:                                               ; preds = %14
  store i32 794, ptr %2, align 4
  br label %24

20:                                               ; preds = %14
  store i32 668, ptr %2, align 4
  br label %24

21:                                               ; preds = %14
  store i32 0, ptr %2, align 4
  br label %24

22:                                               ; preds = %8
  br label %23

23:                                               ; preds = %22, %1
  store i32 0, ptr %2, align 4
  br label %24

24:                                               ; preds = %23, %21, %20, %19
  %25 = load i32, ptr %2, align 4
  ret i32 %25
}