; Function Attrs: mustprogress nofree norecurse nosync nounwind willreturn memory(argmem: read) uwtable
define range(i32 0, 795) i32 @SCT_get_signature_nid(ptr noundef readonly captures(none) %0) local_unnamed_addr #4 {
  %2 = load i32, ptr %0, align 8, !tbaa !11
  %3 = icmp eq i32 %2, 0
  br i1 %3, label %4, label %11

4:                                                ; preds = %1
  %5 = getelementptr inbounds nuw i8, ptr %0, i64 64
  %6 = load i8, ptr %5, align 8, !tbaa !19
  %7 = icmp eq i8 %6, 4
  br i1 %7, label %8, label %11

8:                                                ; preds = %4
  %9 = getelementptr inbounds nuw i8, ptr %0, i64 65
  %10 = load i8, ptr %9, align 1, !tbaa !20
  %switch.selectcmp = icmp eq i8 %10, 1
  %switch.select = select i1 %switch.selectcmp, i32 668, i32 0
  %switch.selectcmp3 = icmp eq i8 %10, 3
  %switch.select4 = select i1 %switch.selectcmp3, i32 794, i32 %switch.select
  br label %11

11:                                               ; preds = %1, %4, %8
  %.0 = phi i32 [ %switch.select4, %8 ], [ 0, %4 ], [ 0, %1 ]
  ret i32 %.0
}